; Function Attrs: nounwind uwtable
define dso_local range(i32 -16, 1) i32 @uv_loop_close(ptr noundef %0) local_unnamed_addr #0 {
  %2 = getelementptr inbounds nuw i8, ptr %0, i64 32
  %3 = load i32, ptr %2, align 8, !tbaa !9
  %.not = icmp eq i32 %3, 0
  br i1 %.not, label %4, label %.loopexit

4:                                                ; preds = %1
  %5 = getelementptr inbounds nuw i8, ptr %0, i64 16
  br label %6

6:                                                ; preds = %7, %4
  %.09.in = phi ptr [ %5, %4 ], [ %.09, %7 ]
  %.09 = load ptr, ptr %.09.in, align 8, !tbaa !39
  %.not10 = icmp eq ptr %.09, %5
  br i1 %.not10, label %11, label %7

7:                                                ; preds = %6
  %8 = getelementptr inbounds nuw i8, ptr %.09, i64 56
  %9 = load i32, ptr %8, align 8, !tbaa !40
  %10 = and i32 %9, 16
  %.not11 = icmp eq i32 %10, 0
  br i1 %.not11, label %.loopexit, label %6, !llvm.loop !87

11:                                               ; preds = %6
  tail call void @uv__loop_close(ptr noundef %0) #26
  %12 = load ptr, ptr @default_loop_ptr, align 8, !tbaa !44
  %13 = icmp eq ptr %0, %12
  br i1 %13, label %14, label %.loopexit

14:                                               ; preds = %11
  store ptr null, ptr @default_loop_ptr, align 8, !tbaa !44
  br label %.loopexit

.loopexit:                                        ; preds = %7, %11, %14, %1
  %.0 = phi i32 [ -16, %1 ], [ 0, %14 ], [ 0, %11 ], [ -16, %7 ]
  ret i32 %.0
}